(dp0
S'taghistory'
p1
c__builtin__
set
p2
((lp3
(S'/media/s3/music/flac/John Legend/Once Again (2006)'
p4
tp5
a(S'/media/s3/music/flac/Marc Anthony/Marc Anthony (1999)'
p6
tp7
a(S'/media/s3/music/flac/Hootie & The Blowfish/Cracked Rear View (1994)'
p8
tp9
a(S'/media/s3/music/flac/Boyz II Men/Cooleyhighharmony (1991)'
p10
tp11
a(S'/media/s3/music/flac/Alanis Morissette/Jagged Little Pill (1995)'
p12
tp13
a(S'/media/s3/music/flac/Cascada/Evacuate the Dancefloor (2009)'
p14
tp15
a(S'/media/s3/music/library/artists/Justin Timberlake/The 20!20 Experience [2013]'
p16
tp17
a(S'/media/s3/music/flac/Alanis Morissette/Havoc and Bright Lights (2012)'
p18
tp19
a(S"/media/s3/music/flac/Colby O'Donis/Colby O (2008)"
p20
tp21
a(S'/media/s3/music/flac/Shontelle/No Gravity (2010)'
p22
tp23
a(S'/media/s3/music/flac/No Doubt/Push and Shove (2012)'
p24
tp25
a(S'/media/s3/music/flac/No Doubt/Rock Steady (2001)'
p26
tp27
a(S'/media/s3/music/flac/Fall Out Boy/Save Rock and Roll (2013)'
p28
tp29
a(S'/media/s3/music/flac/Creed/Human Clay (1999)'
p30
tp31
a(S'/media/s3/music/flac/Jay-Z/Kingdom Come (2006)'
p32
tp33
a(S'/media/s3/music/flac/Ludacris/Release Therapy (2006)'
p34
tp35
a(S'/media/s3/music/flac/TLC/CrazySexyCool (1994)'
p36
tp37
a(S'/media/s3/music/flac/OneRepublic/Native (2013)'
p38
tp39
a(S'/media/s3/music/flac/Alanis Morissette/Supposed Former Infatuation Junkie (1998)'
p40
tp41
a(S'/media/s3/music/flac/No Doubt/Tragic Kingdom (1995)'
p42
tp43
a(S'/media/s3/music/flac/Alanis Morissette/So-Called Chaos (2004)'
p44
tp45
a(S'/media/s3/music/flac/Sonique/Hear My Cry (2000)'
p46
tp47
a(S'/media/s3/music/flac/Lana Del Rey/Born to Die (2012)'
p48
tp49
a(S'/media/s3/music/flac/Howie Day/Stop All the World Now (2003)'
p50
tp51
a(S'/media/s3/music/flac/Bon Jovi/What About Now (2013)'
p52
tp53
a(S'/media/s3/music/flac/Ludacris/Chicken-N-Beer (2003)'
p54
tp55
a(S'/media/s3/music/flac/Emeli Sand\xc3\xa9/Our Version of Events (2012)'
p56
tp57
a(S'/media/s3/music/flac/Sheryl Crow/Wildflower (2005)'
p58
tp59
a(S'/media/s3/music/flac/Jay-Z/The Black Album (2003)'
p60
tp61
a(S'/media/s3/music/flac/Dido/Girl Who Got Away (2013)'
p62
tp63
a(S'/media/s3/music/flac/Kelly Rowland/Ms. Kelly (2007)'
p64
tp65
a(S'/media/s3/music/flac/Savage Garden/Savage Garden (1997)'
p66
tp67
a(S'/media/s3/music/flac/Kelly Rowland/Here I Am (2011)'
p68
tp69
a(S'/media/s3/music/flac/Trey Songz/Chapter V (2012)'
p70
tp71
a(S'/media/s3/music/flac/Gorillaz/Demon Days (2005)'
p72
tp73
a(S'/media/s3/music/flac/Jay-Z/The Dynasty_ Roc La Familia (2000)'
p74
tp75
a(S'/media/s3/music/flac/Trey Songz/Trey Day (2007)'
p76
tp77
a(S'/media/s3/music/flac/Jay-Z/Vol. 2... Hard Knock Life (1998)'
p78
tp79
a(S'/media/s3/music/flac/No Doubt/No Doubt (1992)'
p80
tp81
a(S'/media/s3/music/flac/Ashanti/Ashanti (2002)'
p82
tp83
a(S'/media/s3/music/flac/Orianthi/Heaven in This Hell (2013)'
p84
tp85
a(S'/media/s3/music/flac/TLC/FanMail (1999)'
p86
tp87
a(S'/media/s3/music/flac/Savage Garden/Affirmation (1999)'
p88
tp89
a(S'/media/s3/music/flac/Lloyd/Street Love (2007)'
p90
tp91
a(S'/media/s3/music/flac/Ashanti/The Declaration (2008)'
p92
tp93
a(S'/media/s3/music/flac/Lil Wayne/Tha Carter III (2008)'
p94
tp95
a(S'/media/s3/music/flac/Ashanti/Chapter II (2003)'
p96
tp97
a(S'/media/s3/music/flac/John Legend/Get Lifted (2004)'
p98
tp99
a(S'/media/s3/music/flac/Sisq\xc3\xb3/Unleash the Dragon (1999)'
p100
tp101
a(S'/media/s3/music/flac/Uncle Kracker/No Stranger to Shame (2002)'
p102
tp103
a(S'/media/s3/music/flac/Daft Punk/Discovery ()'
p104
tp105
a(S'/media/s3/music/flac/Jay-Z/The Blueprint 3 (2009)'
p106
tp107
a(S'/media/s3/music/flac/Gorillaz/Gorillaz (2001)'
p108
tp109
a(S'/media/s3/music/flac/Boyz II Men/Evolution (1997)'
p110
tp111
a(S'/media/s3/music/flac/Trey Songz/Ready (2009)'
p112
tp113
a(S'/media/s3/music/flac/Ashanti/The Vault (2008)'
p114
tp115
a(S'/media/s3/music/flac/Aaliyah/One in a Million (1996)'
p116
tp117
a(S'/media/s3/music/flac/Gorillaz/Plastic Beach (2010)'
p118
tp119
a(S'/media/s3/music/flac/Jay-Z/In My Lifetime, Vol. 1 (1997)'
p120
tp121
a(S'/media/s3/music/flac/Boyz II Men/II (1994)'
p122
tp123
a(S"/media/s3/music/flac/Aaliyah/Age Ain't Nothing but a Number (1994)"
p124
tp125
a(S'/media/s3/music/flac/Ludacris/Word of Mouf (2001)'
p126
tp127
a(S'/media/s3/music/flac/Ludacris/Theater of the Mind (2008)'
p128
tp129
a(S"/media/s3/music/flac/Plain White T's/Every Second Counts (2006)"
p130
tp131
a(S'/media/s3/music/flac/Creed/My Own Prison (1997)'
p132
tp133
a(S'/media/s3/music/flac/Jay-Z/The Best of Both Worlds (2002)'
p134
tp135
a(S'/media/s3/music/flac/Daft Punk/Human After All (2005)'
p136
tp137
a(S'/media/s3/music/flac/Sheryl Crow/Sheryl Crow (1996)'
p138
tp139
a(S'/media/s3/music/flac/John Legend/Evolver (2008)'
p140
tp141
a(S'/media/s3/music/flac/Jay-Z/Blueprint III'
p142
tp143
a(S'/media/s3/music/flac/Lloyd/Southside (2004)'
p144
tp145
a(S'/media/s3/music/flac/Mumford & Sons/Babel (2012)'
p146
tp147
a(S'/media/s3/music/flac/Alanis Morissette/Under Rug Swept (2002)'
p148
tp149
a(S'/media/s3/music/flac/Brian McKnight/More Than Words (2013)'
p150
tp151
a(S'/media/s3/music/flac/Ludacris/Battle of the Sexes (2009)'
p152
tp153
a(S'/media/s3/music/flac/Michael Bubl\xc3\xa9/To Be Loved (2013)'
p154
tp155
a(S'/media/s3/music/flac/Of Monsters and Men/My Head Is an Animal (2011)'
p156
tp157
a(S'/media/s3/music/flac/Lloyd/Lessons in Love (2008)'
p158
tp159
a(S'/media/s3/music/flac/TLC/Ooooooohhh ... On the TLC Tip (1992)'
p160
tp161
a(S'/media/s3/music/flac/Uncle Kracker/Double Wide (2000)'
p162
tp163
a(S'/media/s3/music/flac/James Blunt/All the Lost Souls (2007)'
p164
tp165
a(S'/media/s3/music/flac/will.i.am/#willpower (2013)'
p166
tp167
a(S'/media/s3/music/flac/Creed/Weathered (2001)'
p168
tp169
a(S'/media/s3/music/flac/Ashanti/Concrete Rose (2004)'
p170
tp171
atp172
Rp173
s.